; Function Attrs: nofree norecurse nosync nounwind memory(argmem: readwrite) uwtable
define dso_local noundef ptr @decNumberCopy(ptr noundef returned writeonly captures(address, ret: address, provenance) %0, ptr noundef readonly captures(address) %1) local_unnamed_addr #0 {
  %3 = icmp eq ptr %0, %1
  br i1 %3, label %.loopexit, label %4

4:                                                ; preds = %2
  %5 = getelementptr inbounds nuw i8, ptr %1, i64 8
  %6 = load i8, ptr %5, align 4, !tbaa !4
  %7 = getelementptr inbounds nuw i8, ptr %0, i64 8
  store i8 %6, ptr %7, align 4, !tbaa !4
  %8 = getelementptr inbounds nuw i8, ptr %1, i64 4
  %9 = load i32, ptr %8, align 4, !tbaa !9
  %10 = getelementptr inbounds nuw i8, ptr %0, i64 4
  store i32 %9, ptr %10, align 4, !tbaa !9
  %11 = load i32, ptr %1, align 4, !tbaa !10
  store i32 %11, ptr %0, align 4, !tbaa !10
  %.ptr = getelementptr inbounds nuw i8, ptr %1, i64 10
  %12 = load i16, ptr %.ptr, align 2, !tbaa !11
  %13 = getelementptr inbounds nuw i8, ptr %0, i64 10
  store i16 %12, ptr %13, align 2, !tbaa !11
  %14 = icmp sgt i32 %11, 3
  br i1 %14, label %15, label %.loopexit

15:                                               ; preds = %4
  %16 = getelementptr inbounds nuw i8, ptr %0, i64 12
  %17 = icmp samesign ult i32 %11, 50
  br i1 %17, label %20, label %.thread

.thread:                                          ; preds = %15
  %18 = add nuw nsw i32 %11, 2
  %19 = udiv i32 %18, 3
  br label %.lr.ph.preheader

20:                                               ; preds = %15
  %21 = zext nneg i32 %11 to i64
  %22 = getelementptr inbounds nuw [50 x i8], ptr @d2utable, i64 0, i64 %21
  %23 = load i8, ptr %22, align 1, !tbaa !19
  %24 = zext i8 %23 to i32
  %25 = add nsw i32 %11, -4
  %26 = icmp ult i32 %25, 46
  br i1 %26, label %.lr.ph.preheader, label %.loopexit

.lr.ph.preheader:                                 ; preds = %.thread, %20
  %.idx34.pn.in.in = phi i32 [ %19, %.thread ], [ %24, %20 ]
  %.idx34.pn.in = shl nuw nsw i32 %.idx34.pn.in.in, 1
  %.idx34.pn = zext nneg i32 %.idx34.pn.in to i64
  %.pn = getelementptr inbounds nuw i8, ptr %1, i64 %.idx34.pn
  %.ptr3336 = getelementptr inbounds nuw i8, ptr %.pn, i64 10
  %27 = getelementptr inbounds nuw i8, ptr %1, i64 12
  br label %.lr.ph

.lr.ph:                                           ; preds = %.lr.ph.preheader, %.lr.ph
  %.032 = phi ptr [ %30, %.lr.ph ], [ %16, %.lr.ph.preheader ]
  %.02631 = phi ptr [ %29, %.lr.ph ], [ %27, %.lr.ph.preheader ]
  %28 = load i16, ptr %.02631, align 2, !tbaa !11
  store i16 %28, ptr %.032, align 2, !tbaa !11
  %29 = getelementptr inbounds nuw i8, ptr %.02631, i64 2
  %30 = getelementptr inbounds nuw i8, ptr %.032, i64 2
  %31 = icmp ult ptr %29, %.ptr3336
  br i1 %31, label %.lr.ph, label %.loopexit, !llvm.loop !39

.loopexit:                                        ; preds = %.lr.ph, %20, %4, %2
  ret ptr %0
}